target datalayout = "e-m:e-p270:32:32-p271:32:32-p272:64:64-i64:64-i128:128-f80:128-n8:16:32:64-S128"
target triple = "x86_64-pc-linux-gnu"

@hf_fmp_handleListLen = internal global i32 0, align 4
@hf_fmp_sessionHandle = internal global i32 0, align 4
@hf_fmp_fmpFHandle = internal global i32 0, align 4
@hf_fmp_revokeHandleListReason = internal global i32 0, align 4
@ett_fmp_notify_hlist = internal global i32 0, align 4
@.str.81 = private unnamed_addr constant [12 x i8] c"Handle List\00", align 1

; Function Attrs: null_pointer_is_valid sspstrong uwtable
define internal i32 @dissect_handleList(ptr noundef %0, i32 noundef %1, ptr noundef %2, ptr noundef %3) #0 {
  %5 = alloca ptr, align 8
  %6 = alloca i32, align 4
  %7 = alloca ptr, align 8
  %8 = alloca ptr, align 8
  %9 = alloca i32, align 4
  %10 = alloca i32, align 4
  %11 = alloca i32, align 4
  %12 = alloca ptr, align 8
  store ptr %0, ptr %5, align 8
  store i32 %1, ptr %6, align 4
  store ptr %2, ptr %7, align 8
  store ptr %3, ptr %8, align 8
  call void @llvm.lifetime.start.p0(i64 4, ptr %9) #3
  call void @llvm.lifetime.start.p0(i64 4, ptr %10) #3
  call void @llvm.lifetime.start.p0(i64 4, ptr %11) #3
  call void @llvm.lifetime.start.p0(i64 8, ptr %12) #3
  %13 = load ptr, ptr %5, align 8
  %14 = load i32, ptr %6, align 4
  %15 = call i32 @tvb_get_ntohl(ptr noundef %13, i32 noundef %14)
  store i32 %15, ptr %9, align 4
  store i32 4, ptr %10, align 4
  store i32 0, ptr %11, align 4
  br label %16

16:                                               ; preds = %29, %4
  %17 = load i32, ptr %11, align 4
  %18 = load i32, ptr %9, align 4
  %19 = icmp slt i32 %17, %18
  br i1 %19, label %20, label %32

20:                                               ; preds = %16
  %21 = load ptr, ptr %5, align 8
  %22 = load i32, ptr %6, align 4
  %23 = load i32, ptr %10, align 4
  %24 = add i32 %22, %23
  %25 = call i32 @tvb_get_ntohl(ptr noundef %21, i32 noundef %24)
  %26 = add i32 4, %25
  %27 = load i32, ptr %10, align 4
  %28 = add i32 %27, %26
  store i32 %28, ptr %10, align 4
  br label %29

29:                                               ; preds = %20
  %30 = load i32, ptr %11, align 4
  %31 = add i32 %30, 1
  store i32 %31, ptr %11, align 4
  br label %16, !llvm.loop !8

32:                                               ; preds = %16
  %33 = load ptr, ptr %8, align 8
  %34 = load ptr, ptr %5, align 8
  %35 = load i32, ptr %6, align 4
  %36 = load i32, ptr %10, align 4
  %37 = load i32, ptr @ett_fmp_notify_hlist, align 4
  %38 = call ptr @proto_tree_add_subtree(ptr noundef %33, ptr noundef %34, i32 noundef %35, i32 noundef %36, i32 noundef %37, ptr noundef null, ptr noundef @.str.81)
  store ptr %38, ptr %12, align 8
  %39 = load ptr, ptr %5, align 8
  %40 = load ptr, ptr %12, align 8
  %41 = load i32, ptr @hf_fmp_handleListLen, align 4
  %42 = load i32, ptr %6, align 4
  %43 = call i32 @dissect_rpc_uint32(ptr noundef %39, ptr noundef %40, i32 noundef %41, i32 noundef %42)
  store i32 %43, ptr %6, align 4
  store i32 0, ptr %11, align 4
  br label %44

44:                                               ; preds = %54, %32
  %45 = load i32, ptr %11, align 4
  %46 = load i32, ptr %9, align 4
  %47 = icmp slt i32 %45, %46
  br i1 %47, label %48, label %57

48:                                               ; preds = %44
  %49 = load ptr, ptr %5, align 8
  %50 = load ptr, ptr %12, align 8
  %51 = load i32, ptr @hf_fmp_fmpFHandle, align 4
  %52 = load i32, ptr %6, align 4
  %53 = call i32 @dissect_rpc_data(ptr noundef %49, ptr noundef %50, i32 noundef %51, i32 noundef %52)
  store i32 %53, ptr %6, align 4
  br label %54

54:                                               ; preds = %48
  %55 = load i32, ptr %11, align 4
  %56 = add i32 %55, 1
  store i32 %56, ptr %11, align 4
  br label %44, !llvm.loop !9

57:                                               ; preds = %44
  %58 = load i32, ptr %6, align 4
  call void @llvm.lifetime.end.p0(i64 8, ptr %12) #3
  call void @llvm.lifetime.end.p0(i64 4, ptr %11) #3
  call void @llvm.lifetime.end.p0(i64 4, ptr %10) #3
  call void @llvm.lifetime.end.p0(i64 4, ptr %9) #3
  ret i32 %58
}

; Function Attrs: null_pointer_is_valid sspstrong uwtable
define internal i32 @dissect_revokeHandleListReason(ptr noundef %0, i32 noundef %1, ptr noundef %2) #0 {
  %4 = alloca ptr, align 8
  %5 = alloca i32, align 4
  %6 = alloca ptr, align 8
  store ptr %0, ptr %4, align 8
  store i32 %1, ptr %5, align 4
  store ptr %2, ptr %6, align 8
  %7 = load ptr, ptr %6, align 8
  %8 = load i32, ptr @hf_fmp_revokeHandleListReason, align 4
  %9 = load ptr, ptr %4, align 8
  %10 = load i32, ptr %5, align 4
  %11 = call ptr @proto_tree_add_item(ptr noundef %7, i32 noundef %8, ptr noundef %9, i32 noundef %10, i32 noundef 4, i32 noundef 0)
  %12 = load i32, ptr %5, align 4
  %13 = add i32 %12, 4
  store i32 %13, ptr %5, align 4
  %14 = load i32, ptr %5, align 4
  ret i32 %14
}

; Function Attrs: null_pointer_is_valid sspstrong uwtable
define internal i32 @dissect_FMP_NOTIFY_revokeHandleList_request(ptr noundef %0, ptr noundef %1, ptr noundef %2, ptr noundef %3) #0 {
  %5 = alloca ptr, align 8
  %6 = alloca ptr, align 8
  %7 = alloca ptr, align 8
  %8 = alloca ptr, align 8
  %9 = alloca i32, align 4
  store ptr %0, ptr %5, align 8
  store ptr %1, ptr %6, align 8
  store ptr %2, ptr %7, align 8
  store ptr %3, ptr %8, align 8
  call void @llvm.lifetime.start.p0(i64 4, ptr %9) #3
  store i32 0, ptr %9, align 4
  %10 = load ptr, ptr %5, align 8
  %11 = load ptr, ptr %7, align 8
  %12 = load i32, ptr @hf_fmp_sessionHandle, align 4
  %13 = load i32, ptr %9, align 4
  %14 = call i32 @dissect_rpc_data(ptr noundef %10, ptr noundef %11, i32 noundef %12, i32 noundef %13)
  store i32 %14, ptr %9, align 4
  %15 = load ptr, ptr %5, align 8
  %16 = load i32, ptr %9, align 4
  %17 = load ptr, ptr %7, align 8
  %18 = call i32 @dissect_revokeHandleListReason(ptr noundef %15, i32 noundef %16, ptr noundef %17)
  store i32 %18, ptr %9, align 4
  %19 = load ptr, ptr %5, align 8
  %20 = load i32, ptr %9, align 4
  %21 = load ptr, ptr %6, align 8
  %22 = load ptr, ptr %7, align 8
  %23 = call i32 @dissect_handleList(ptr noundef %19, i32 noundef %20, ptr noundef %21, ptr noundef %22)
  store i32 %23, ptr %9, align 4
  %24 = load i32, ptr %9, align 4
  call void @llvm.lifetime.end.p0(i64 4, ptr %9) #3
  ret i32 %24
}