; Function Attrs: null_pointer_is_valid sspstrong uwtable
define internal i32 @dissect_FMP_NOTIFY_revokeHandleList_request(ptr noundef %0, ptr readnone captures(none) %1, ptr noundef %2, ptr readnone captures(none) %3) #0 {
  %5 = load i32, ptr @hf_fmp_sessionHandle, align 4
  %6 = tail call i32 @dissect_rpc_data(ptr noundef %0, ptr noundef %2, i32 noundef %5, i32 noundef 0)
  %7 = load i32, ptr @hf_fmp_revokeHandleListReason, align 4
  %8 = tail call ptr @proto_tree_add_item(ptr noundef %2, i32 noundef %7, ptr noundef %0, i32 noundef %6, i32 noundef 4, i32 noundef 0)
  %9 = add i32 %6, 4
  %10 = tail call i32 @tvb_get_ntohl(ptr noundef %0, i32 noundef %9)
  %11 = icmp sgt i32 %10, 0
  br i1 %11, label %.lr.ph.i, label %._crit_edge.i

.lr.ph.i:                                         ; preds = %4, %.lr.ph.i
  %.0222.i = phi i32 [ %16, %.lr.ph.i ], [ 0, %4 ]
  %.0231.i = phi i32 [ %15, %.lr.ph.i ], [ 4, %4 ]
  %12 = add i32 %.0231.i, %9
  %13 = tail call i32 @tvb_get_ntohl(ptr noundef %0, i32 noundef %12)
  %14 = add i32 %.0231.i, 4
  %15 = add i32 %14, %13
  %16 = add nuw nsw i32 %.0222.i, 1
  %exitcond.not.i = icmp eq i32 %16, %10
  br i1 %exitcond.not.i, label %._crit_edge.i, label %.lr.ph.i, !llvm.loop !8

._crit_edge.i:                                    ; preds = %.lr.ph.i, %4
  %.023.lcssa.i = phi i32 [ 4, %4 ], [ %15, %.lr.ph.i ]
  %17 = load i32, ptr @ett_fmp_notify_hlist, align 4
  %18 = tail call ptr @proto_tree_add_subtree(ptr noundef %2, ptr noundef %0, i32 noundef %9, i32 noundef %.023.lcssa.i, i32 noundef %17, ptr noundef null, ptr noundef nonnull @.str.81)
  %19 = load i32, ptr @hf_fmp_handleListLen, align 4
  %20 = tail call i32 @dissect_rpc_uint32(ptr noundef %0, ptr noundef %18, i32 noundef %19, i32 noundef %9)
  br i1 %11, label %.lr.ph6.i, label %dissect_handleList.exit

.lr.ph6.i:                                        ; preds = %._crit_edge.i, %.lr.ph6.i
  %.04.i = phi i32 [ %22, %.lr.ph6.i ], [ %20, %._crit_edge.i ]
  %.13.i = phi i32 [ %23, %.lr.ph6.i ], [ 0, %._crit_edge.i ]
  %21 = load i32, ptr @hf_fmp_fmpFHandle, align 4
  %22 = tail call i32 @dissect_rpc_data(ptr noundef %0, ptr noundef %18, i32 noundef %21, i32 noundef %.04.i)
  %23 = add nuw nsw i32 %.13.i, 1
  %exitcond10.not.i = icmp eq i32 %23, %10
  br i1 %exitcond10.not.i, label %dissect_handleList.exit, label %.lr.ph6.i, !llvm.loop !9

dissect_handleList.exit:                          ; preds = %.lr.ph6.i, %._crit_edge.i
  %.0.lcssa.i = phi i32 [ %20, %._crit_edge.i ], [ %22, %.lr.ph6.i ]
  ret i32 %.0.lcssa.i
}